; Function Attrs: mustprogress uwtable
define void @_Z12check_mcoverf(float noundef %0) local_unnamed_addr #0 personality ptr @__gxx_personality_v0 {
  %2 = alloca %"class.std::filesystem::__cxx11::path", align 8
  %3 = alloca %"class.std::filesystem::__cxx11::path", align 8
  %4 = fcmp ogt float %0, 1.000000e+00
  br i1 %4, label %5, label %9

5:                                                ; preds = %1
  call void @llvm.lifetime.start.p0(i64 40, ptr nonnull %2) #16
  call void @_ZNSt10filesystem7__cxx114pathC2IA125_cS1_EERKT_NS1_6formatE(ptr noundef nonnull align 8 dereferenceable(40) %2, ptr noundef nonnull align 1 dereferenceable(125) @.str, i8 noundef zeroext 2)
  invoke void (i32, ptr, i32, ptr, ...) @_Z9gmx_fataliRKNSt10filesystem7__cxx114pathEiPKcz(i32 noundef 0, ptr noundef nonnull align 8 dereferenceable(40) %2, i32 noundef 76, ptr noundef nonnull @.str.3) #27
          to label %6 unwind label %7

6:                                                ; preds = %5
  unreachable

7:                                                ; preds = %5
  %8 = landingpad { ptr, i32 }
          cleanup
  call void @_ZNSt10filesystem7__cxx114pathD2Ev(ptr noundef nonnull align 8 dereferenceable(40) %2) #16
  call void @llvm.lifetime.end.p0(i64 40, ptr nonnull %2) #16
  br label %17

9:                                                ; preds = %1
  %10 = fcmp olt float %0, 0.000000e+00
  %11 = fcmp une float %0, -1.000000e+00
  %or.cond = and i1 %10, %11
  br i1 %or.cond, label %12, label %16

12:                                               ; preds = %9
  call void @llvm.lifetime.start.p0(i64 40, ptr nonnull %3) #16
  call void @_ZNSt10filesystem7__cxx114pathC2IA125_cS1_EERKT_NS1_6formatE(ptr noundef nonnull align 8 dereferenceable(40) %3, ptr noundef nonnull align 1 dereferenceable(125) @.str, i8 noundef zeroext 2)
  invoke void (i32, ptr, i32, ptr, ...) @_Z9gmx_fataliRKNSt10filesystem7__cxx114pathEiPKcz(i32 noundef 0, ptr noundef nonnull align 8 dereferenceable(40) %3, i32 noundef 80, ptr noundef nonnull @.str.3) #27
          to label %13 unwind label %14

13:                                               ; preds = %12
  unreachable

14:                                               ; preds = %12
  %15 = landingpad { ptr, i32 }
          cleanup
  call void @_ZNSt10filesystem7__cxx114pathD2Ev(ptr noundef nonnull align 8 dereferenceable(40) %3) #16
  call void @llvm.lifetime.end.p0(i64 40, ptr nonnull %3) #16
  br label %17

16:                                               ; preds = %9
  ret void

17:                                               ; preds = %14, %7
  %.pn = phi { ptr, i32 } [ %8, %7 ], [ %15, %14 ]
  resume { ptr, i32 } %.pn
}